target datalayout = "e-m:e-p270:32:32-p271:32:32-p272:64:64-i64:64-i128:128-f80:128-n8:16:32:64-S128"
target triple = "x86_64-pc-linux-gnu"

%"class.Ipopt::StdInterfaceTNLP" = type { %"class.Ipopt::TNLP.base", %"class.Ipopt::SmartPtr", i32, i32, ptr, ptr, ptr, ptr, i32, i32, i32, ptr, ptr, ptr, ptr, ptr, ptr, ptr, ptr, ptr, ptr, ptr, double, ptr, ptr, ptr, ptr, ptr, ptr, ptr, ptr, ptr, ptr, ptr }
%"class.Ipopt::TNLP.base" = type { %"class.Ipopt::ReferencedObject.base" }
%"class.Ipopt::ReferencedObject.base" = type <{ ptr, i32 }>
%"class.Ipopt::SmartPtr" = type { ptr }

; Function Attrs: mustprogress uwtable
define void @_ZN5Ipopt16StdInterfaceTNLP11apply_new_xEbiPKd(ptr noundef nonnull align 8 dereferenceable(264) %0, i1 noundef zeroext %1, i32 noundef %2, ptr noundef %3) #0 align 2 {
  %5 = alloca ptr, align 8
  %6 = alloca i8, align 1
  %7 = alloca i32, align 4
  %8 = alloca ptr, align 8
  store ptr %0, ptr %5, align 8
  %9 = zext i1 %1 to i8
  store i8 %9, ptr %6, align 1
  store i32 %2, ptr %7, align 4
  store ptr %3, ptr %8, align 8
  %10 = load ptr, ptr %5, align 8
  %11 = load i8, ptr %6, align 1
  %12 = trunc i8 %11 to i1
  br i1 %12, label %13, label %31

13:                                               ; preds = %4
  %14 = getelementptr inbounds %"class.Ipopt::StdInterfaceTNLP", ptr %10, i32 0, i32 25
  %15 = load ptr, ptr %14, align 8
  %16 = icmp eq ptr %15, null
  br i1 %16, label %17, label %26

17:                                               ; preds = %13
  %18 = load i32, ptr %7, align 4
  %19 = sext i32 %18 to i64
  %20 = call { i64, i1 } @llvm.umul.with.overflow.i64(i64 %19, i64 8)
  %21 = extractvalue { i64, i1 } %20, 1
  %22 = extractvalue { i64, i1 } %20, 0
  %23 = select i1 %21, i64 -1, i64 %22
  %24 = call noalias noundef nonnull ptr @_Znam(i64 noundef %23) #12
  %25 = getelementptr inbounds %"class.Ipopt::StdInterfaceTNLP", ptr %10, i32 0, i32 25
  store ptr %24, ptr %25, align 8
  br label %26

26:                                               ; preds = %17, %13
  %27 = load i32, ptr %7, align 4
  %28 = load ptr, ptr %8, align 8
  %29 = getelementptr inbounds %"class.Ipopt::StdInterfaceTNLP", ptr %10, i32 0, i32 25
  %30 = load ptr, ptr %29, align 8
  call void @_ZN5Ipopt10IpBlasCopyEiPKdiPdi(i32 noundef %27, ptr noundef %28, i32 noundef 1, ptr noundef %30, i32 noundef 1)
  br label %31

31:                                               ; preds = %26, %4
  ret void
}

; Function Attrs: mustprogress uwtable
define noundef zeroext i1 @_ZN5Ipopt16StdInterfaceTNLP10eval_jac_gEiPKdbiiPiS3_Pd(ptr noundef nonnull align 8 dereferenceable(264) %0, i32 noundef %1, ptr noundef %2, i1 noundef zeroext %3, i32 noundef %4, i32 noundef %5, ptr noundef %6, ptr noundef %7, ptr noundef %8) unnamed_addr #0 align 2 {
  %10 = alloca ptr, align 8
  %11 = alloca i32, align 4
  %12 = alloca ptr, align 8
  %13 = alloca i8, align 1
  %14 = alloca i32, align 4
  %15 = alloca i32, align 4
  %16 = alloca ptr, align 8
  %17 = alloca ptr, align 8
  %18 = alloca ptr, align 8
  %19 = alloca i8, align 1
  store ptr %0, ptr %10, align 8
  store i32 %1, ptr %11, align 4
  store ptr %2, ptr %12, align 8
  %20 = zext i1 %3 to i8
  store i8 %20, ptr %13, align 1
  store i32 %4, ptr %14, align 4
  store i32 %5, ptr %15, align 4
  store ptr %6, ptr %16, align 8
  store ptr %7, ptr %17, align 8
  store ptr %8, ptr %18, align 8
  %21 = load ptr, ptr %10, align 8
  %22 = load i8, ptr %13, align 1
  %23 = trunc i8 %22 to i1
  %24 = load i32, ptr %11, align 4
  %25 = load ptr, ptr %12, align 8
  call void @_ZN5Ipopt16StdInterfaceTNLP11apply_new_xEbiPKd(ptr noundef nonnull align 8 dereferenceable(264) %21, i1 noundef zeroext %23, i32 noundef %24, ptr noundef %25)
  %26 = getelementptr inbounds %"class.Ipopt::StdInterfaceTNLP", ptr %21, i32 0, i32 18
  %27 = load ptr, ptr %26, align 8
  %28 = load i32, ptr %11, align 4
  %29 = getelementptr inbounds %"class.Ipopt::StdInterfaceTNLP", ptr %21, i32 0, i32 25
  %30 = load ptr, ptr %29, align 8
  %31 = load i8, ptr %13, align 1
  %32 = trunc i8 %31 to i1
  %33 = load i32, ptr %14, align 4
  %34 = load i32, ptr %15, align 4
  %35 = load ptr, ptr %16, align 8
  %36 = load ptr, ptr %17, align 8
  %37 = load ptr, ptr %18, align 8
  %38 = getelementptr inbounds %"class.Ipopt::StdInterfaceTNLP", ptr %21, i32 0, i32 21
  %39 = load ptr, ptr %38, align 8
  %40 = call noundef zeroext i1 %27(i32 noundef %28, ptr noundef %30, i1 noundef zeroext %32, i32 noundef %33, i32 noundef %34, ptr noundef %35, ptr noundef %36, ptr noundef %37, ptr noundef %39)
  %41 = zext i1 %40 to i8
  store i8 %41, ptr %19, align 1
  %42 = load i8, ptr %19, align 1
  %43 = trunc i8 %42 to i1
  %44 = zext i1 %43 to i32
  %45 = icmp ne i32 %44, 0
  ret i1 %45
}