; Function Attrs: mustprogress uwtable
define noundef zeroext i1 @_ZN5Ipopt16StdInterfaceTNLP10eval_jac_gEiPKdbiiPiS3_Pd(ptr nocapture noundef nonnull align 8 dereferenceable(264) %0, i32 noundef %1, ptr noundef %2, i1 noundef zeroext %3, i32 noundef %4, i32 noundef %5, ptr noundef %6, ptr noundef %7, ptr noundef %8) unnamed_addr #0 align 2 {
  br i1 %3, label %10, label %_ZN5Ipopt16StdInterfaceTNLP11apply_new_xEbiPKd.exit

10:                                               ; preds = %9
  %11 = getelementptr inbounds i8, ptr %0, i64 192
  %12 = load ptr, ptr %11, align 8
  %13 = icmp eq ptr %12, null
  br i1 %13, label %14, label %20

14:                                               ; preds = %10
  %15 = zext nneg i32 %1 to i64
  %16 = icmp slt i32 %1, 0
  %17 = shl nuw nsw i64 %15, 3
  %18 = select i1 %16, i64 -1, i64 %17
  %19 = tail call noalias noundef nonnull ptr @_Znam(i64 noundef %18) #13
  store ptr %19, ptr %11, align 8
  br label %20

20:                                               ; preds = %14, %10
  %21 = phi ptr [ %19, %14 ], [ %12, %10 ]
  tail call void @_ZN5Ipopt10IpBlasCopyEiPKdiPdi(i32 noundef %1, ptr noundef %2, i32 noundef 1, ptr noundef nonnull %21, i32 noundef 1)
  br label %_ZN5Ipopt16StdInterfaceTNLP11apply_new_xEbiPKd.exit

_ZN5Ipopt16StdInterfaceTNLP11apply_new_xEbiPKd.exit: ; preds = %9, %20
  %22 = getelementptr inbounds i8, ptr %0, i64 136
  %23 = load ptr, ptr %22, align 8
  %24 = getelementptr inbounds i8, ptr %0, i64 192
  %25 = load ptr, ptr %24, align 8
  %26 = getelementptr inbounds i8, ptr %0, i64 160
  %27 = load ptr, ptr %26, align 8
  %28 = tail call noundef zeroext i1 %23(i32 noundef %1, ptr noundef %25, i1 noundef zeroext %3, i32 noundef %4, i32 noundef %5, ptr noundef %6, ptr noundef %7, ptr noundef %8, ptr noundef %27)
  ret i1 %28
}